target datalayout = "e-m:e-p270:32:32-p271:32:32-p272:64:64-i64:64-i128:128-f80:128-n8:16:32:64-S128"
target triple = "x86_64-pc-linux-gnu"

%struct.lua_State = type { %struct.GCRef, i8, i8, i8, i8, %struct.MRef, %struct.GCRef, ptr, ptr, %struct.MRef, %struct.MRef, %struct.GCRef, %struct.GCRef, ptr, i32 }
%struct.MRef = type { i64 }
%struct.GCRef = type { i64 }
%union.TValue = type { i64 }
%struct.global_State = type { ptr, ptr, %struct.GCState, %struct.GCstr, i8, i8, i8, i8, %struct.StrInternState, i32, %struct.GCRef, %struct.SBuf, %union.TValue, %union.TValue, %struct.Node, %union.TValue, %struct.GCupval, i32, i32, ptr, ptr, ptr, i32, i32, %struct.GCRef, %struct.MRef, %struct.MRef, %struct.PRNGState, [39 x %struct.GCRef] }
%struct.GCState = type { i64, i64, i8, i8, i8, i8, i32, %struct.GCRef, %struct.MRef, %struct.GCRef, %struct.GCRef, %struct.GCRef, %struct.GCRef, i64, i64, i32, i32, %struct.MRef }
%struct.GCstr = type { %struct.GCRef, i8, i8, i8, i8, i32, i32, i32 }
%struct.StrInternState = type { ptr, i32, i32, i32, i8, i8, i8, i8, i64 }
%struct.SBuf = type { ptr, ptr, ptr, %struct.MRef }
%struct.Node = type { %union.TValue, %union.TValue, %struct.MRef }
%struct.GCupval = type { %struct.GCRef, i8, i8, i8, i8, %union.anon, %struct.MRef, i32 }
%union.anon = type { %struct.anon.1 }
%struct.anon.1 = type { %struct.GCRef, %struct.GCRef }
%struct.PRNGState = type { [4 x i64] }
%struct.GCudata = type { %struct.GCRef, i8, i8, i8, i8, %struct.GCRef, i32, %struct.GCRef, i32 }
%struct.IOFileUD = type { ptr, i32 }

@.str = private unnamed_addr constant [6 x i8] c"FILE*\00", align 1
@.str.7 = private unnamed_addr constant [24 x i8] c"store to dead GC object\00", align 1
@.str.16 = private unnamed_addr constant [2 x i8] c"w\00", align 1

; Function Attrs: alwaysinline nounwind uwtable
define internal void @checklivetv(ptr noundef %0, ptr noundef %1, ptr noundef %2) #2 {
  %4 = alloca ptr, align 8
  %5 = alloca ptr, align 8
  %6 = alloca ptr, align 8
  store ptr %0, ptr %4, align 8, !tbaa !4
  store ptr %1, ptr %5, align 8, !tbaa !20
  store ptr %2, ptr %6, align 8, !tbaa !23
  ret void
}

; Function Attrs: alwaysinline nounwind uwtable
define internal void @setgcVraw(ptr noundef %0, ptr noundef %1, i32 noundef %2) #2 {
  %4 = alloca ptr, align 8
  %5 = alloca ptr, align 8
  %6 = alloca i32, align 4
  store ptr %0, ptr %4, align 8, !tbaa !20
  store ptr %1, ptr %5, align 8, !tbaa !55
  store i32 %2, ptr %6, align 4, !tbaa !36
  %7 = load ptr, ptr %5, align 8, !tbaa !55
  %8 = ptrtoint ptr %7 to i64
  %9 = load i32, ptr %6, align 4, !tbaa !36
  %10 = zext i32 %9 to i64
  %11 = shl i64 %10, 47
  %12 = or i64 %8, %11
  %13 = load ptr, ptr %4, align 8, !tbaa !20
  %14 = getelementptr inbounds nuw %struct.GCRef, ptr %13, i32 0, i32 0
  store i64 %12, ptr %14, align 8, !tbaa !22
  ret void
}

; Function Attrs: alwaysinline nounwind uwtable
define internal void @setgcV(ptr noundef %0, ptr noundef %1, ptr noundef %2, i32 noundef %3) #2 {
  %5 = alloca ptr, align 8
  %6 = alloca ptr, align 8
  %7 = alloca ptr, align 8
  %8 = alloca i32, align 4
  store ptr %0, ptr %5, align 8, !tbaa !4
  store ptr %1, ptr %6, align 8, !tbaa !20
  store ptr %2, ptr %7, align 8, !tbaa !55
  store i32 %3, ptr %8, align 4, !tbaa !36
  %9 = load ptr, ptr %6, align 8, !tbaa !20
  %10 = load ptr, ptr %7, align 8, !tbaa !55
  %11 = load i32, ptr %8, align 4, !tbaa !36
  call void @setgcVraw(ptr noundef %9, ptr noundef %10, i32 noundef %11)
  %12 = load ptr, ptr %5, align 8, !tbaa !4
  %13 = load ptr, ptr %6, align 8, !tbaa !20
  call void @checklivetv(ptr noundef %12, ptr noundef %13, ptr noundef @.str.7)
  ret void
}

; Function Attrs: nounwind uwtable
define internal ptr @io_tofilep(ptr noundef %0) #0 {
  %2 = alloca ptr, align 8
  store ptr %0, ptr %2, align 8, !tbaa !4
  %3 = load ptr, ptr %2, align 8, !tbaa !4
  %4 = getelementptr inbounds nuw %struct.lua_State, ptr %3, i32 0, i32 7
  %5 = load ptr, ptr %4, align 8, !tbaa !35
  %6 = load ptr, ptr %2, align 8, !tbaa !4
  %7 = getelementptr inbounds nuw %struct.lua_State, ptr %6, i32 0, i32 8
  %8 = load ptr, ptr %7, align 8, !tbaa !9
  %9 = icmp ult ptr %5, %8
  br i1 %9, label %10, label %30

10:                                               ; preds = %1
  %11 = load ptr, ptr %2, align 8, !tbaa !4
  %12 = getelementptr inbounds nuw %struct.lua_State, ptr %11, i32 0, i32 7
  %13 = load ptr, ptr %12, align 8, !tbaa !35
  %14 = load i64, ptr %13, align 8, !tbaa !22
  %15 = ashr i64 %14, 47
  %16 = trunc i64 %15 to i32
  %17 = icmp eq i32 %16, -13
  br i1 %17, label %18, label %30

18:                                               ; preds = %10
  %19 = load ptr, ptr %2, align 8, !tbaa !4
  %20 = getelementptr inbounds nuw %struct.lua_State, ptr %19, i32 0, i32 7
  %21 = load ptr, ptr %20, align 8, !tbaa !35
  %22 = getelementptr inbounds nuw %struct.GCRef, ptr %21, i32 0, i32 0
  %23 = load i64, ptr %22, align 8, !tbaa !22
  %24 = and i64 %23, 140737488355327
  %25 = inttoptr i64 %24 to ptr
  %26 = getelementptr inbounds nuw %struct.GCudata, ptr %25, i32 0, i32 3
  %27 = load i8, ptr %26, align 2, !tbaa !22
  %28 = zext i8 %27 to i32
  %29 = icmp eq i32 %28, 1
  br i1 %29, label %32, label %30

30:                                               ; preds = %18, %10, %1
  %31 = load ptr, ptr %2, align 8, !tbaa !4
  call void @lj_err_argtype(ptr noundef %31, i32 noundef 1, ptr noundef @.str) #11
  unreachable

32:                                               ; preds = %18
  %33 = load ptr, ptr %2, align 8, !tbaa !4
  %34 = getelementptr inbounds nuw %struct.lua_State, ptr %33, i32 0, i32 7
  %35 = load ptr, ptr %34, align 8, !tbaa !35
  %36 = getelementptr inbounds nuw %struct.GCRef, ptr %35, i32 0, i32 0
  %37 = load i64, ptr %36, align 8, !tbaa !22
  %38 = and i64 %37, 140737488355327
  %39 = inttoptr i64 %38 to ptr
  %40 = getelementptr inbounds %struct.GCudata, ptr %39, i64 1
  ret ptr %40
}

; Function Attrs: alwaysinline nounwind uwtable
define internal void @setudataV(ptr noundef %0, ptr noundef %1, ptr noundef %2) #2 {
  %4 = alloca ptr, align 8
  %5 = alloca ptr, align 8
  %6 = alloca ptr, align 8
  store ptr %0, ptr %4, align 8, !tbaa !4
  store ptr %1, ptr %5, align 8, !tbaa !20
  store ptr %2, ptr %6, align 8, !tbaa !27
  %7 = load ptr, ptr %4, align 8, !tbaa !4
  %8 = load ptr, ptr %5, align 8, !tbaa !20
  %9 = load ptr, ptr %6, align 8, !tbaa !27
  call void @setgcV(ptr noundef %7, ptr noundef %8, ptr noundef %9, i32 noundef -13)
  ret void
}

; Function Attrs: nounwind uwtable
define internal ptr @io_tofile(ptr noundef %0) #0 {
  %2 = alloca ptr, align 8
  %3 = alloca ptr, align 8
  store ptr %0, ptr %2, align 8, !tbaa !4
  call void @llvm.lifetime.start.p0(i64 8, ptr %3) #10
  %4 = load ptr, ptr %2, align 8, !tbaa !4
  %5 = call ptr @io_tofilep(ptr noundef %4)
  store ptr %5, ptr %3, align 8, !tbaa !25
  %6 = load ptr, ptr %3, align 8, !tbaa !25
  %7 = getelementptr inbounds nuw %struct.IOFileUD, ptr %6, i32 0, i32 0
  %8 = load ptr, ptr %7, align 8, !tbaa !32
  %9 = icmp eq ptr %8, null
  br i1 %9, label %10, label %12

10:                                               ; preds = %1
  %11 = load ptr, ptr %2, align 8, !tbaa !4
  call void @lj_err_caller(ptr noundef %11, i32 noundef 1531) #11
  unreachable

12:                                               ; preds = %1
  %13 = load ptr, ptr %3, align 8, !tbaa !25
  call void @llvm.lifetime.end.p0(i64 8, ptr %3) #10
  ret ptr %13
}

; Function Attrs: nounwind uwtable
define internal i32 @io_std_getset(ptr noundef %0, i64 noundef %1, ptr noundef %2) #0 {
  %4 = alloca ptr, align 8
  %5 = alloca i64, align 8
  %6 = alloca ptr, align 8
  store ptr %0, ptr %4, align 8, !tbaa !4
  store i64 %1, ptr %5, align 8, !tbaa !37
  store ptr %2, ptr %6, align 8, !tbaa !23
  %7 = load ptr, ptr %4, align 8, !tbaa !4
  %8 = getelementptr inbounds nuw %struct.lua_State, ptr %7, i32 0, i32 7
  %9 = load ptr, ptr %8, align 8, !tbaa !35
  %10 = load ptr, ptr %4, align 8, !tbaa !4
  %11 = getelementptr inbounds nuw %struct.lua_State, ptr %10, i32 0, i32 8
  %12 = load ptr, ptr %11, align 8, !tbaa !9
  %13 = icmp ult ptr %9, %12
  br i1 %13, label %14, label %60

14:                                               ; preds = %3
  %15 = load ptr, ptr %4, align 8, !tbaa !4
  %16 = getelementptr inbounds nuw %struct.lua_State, ptr %15, i32 0, i32 7
  %17 = load ptr, ptr %16, align 8, !tbaa !35
  %18 = load i64, ptr %17, align 8, !tbaa !22
  %19 = icmp eq i64 %18, -1
  br i1 %19, label %60, label %20

20:                                               ; preds = %14
  %21 = load ptr, ptr %4, align 8, !tbaa !4
  %22 = getelementptr inbounds nuw %struct.lua_State, ptr %21, i32 0, i32 7
  %23 = load ptr, ptr %22, align 8, !tbaa !35
  %24 = load i64, ptr %23, align 8, !tbaa !22
  %25 = ashr i64 %24, 47
  %26 = trunc i64 %25 to i32
  %27 = icmp eq i32 %26, -13
  br i1 %27, label %28, label %37

28:                                               ; preds = %20
  %29 = load ptr, ptr %4, align 8, !tbaa !4
  %30 = call ptr @io_tofile(ptr noundef %29)
  %31 = load ptr, ptr %4, align 8, !tbaa !4
  %32 = getelementptr inbounds nuw %struct.lua_State, ptr %31, i32 0, i32 7
  %33 = load ptr, ptr %32, align 8, !tbaa !35
  %34 = getelementptr inbounds %union.TValue, ptr %33, i64 1
  %35 = load ptr, ptr %4, align 8, !tbaa !4
  %36 = getelementptr inbounds nuw %struct.lua_State, ptr %35, i32 0, i32 8
  store ptr %34, ptr %36, align 8, !tbaa !9
  br label %41

37:                                               ; preds = %20
  %38 = load ptr, ptr %4, align 8, !tbaa !4
  %39 = load ptr, ptr %6, align 8, !tbaa !23
  %40 = call ptr @io_file_open(ptr noundef %38, ptr noundef %39)
  br label %41

41:                                               ; preds = %37, %28
  %42 = load ptr, ptr %4, align 8, !tbaa !4
  %43 = getelementptr inbounds nuw %struct.lua_State, ptr %42, i32 0, i32 8
  %44 = load ptr, ptr %43, align 8, !tbaa !9
  %45 = getelementptr inbounds %union.TValue, ptr %44, i64 -1
  %46 = getelementptr inbounds nuw %struct.GCRef, ptr %45, i32 0, i32 0
  %47 = load i64, ptr %46, align 8, !tbaa !22
  %48 = and i64 %47, 140737488355327
  %49 = inttoptr i64 %48 to ptr
  %50 = ptrtoint ptr %49 to i64
  %51 = load ptr, ptr %4, align 8, !tbaa !4
  %52 = getelementptr inbounds nuw %struct.lua_State, ptr %51, i32 0, i32 5
  %53 = getelementptr inbounds nuw %struct.MRef, ptr %52, i32 0, i32 0
  %54 = load i64, ptr %53, align 8, !tbaa !18
  %55 = inttoptr i64 %54 to ptr
  %56 = getelementptr inbounds nuw %struct.global_State, ptr %55, i32 0, i32 28
  %57 = load i64, ptr %5, align 8, !tbaa !37
  %58 = getelementptr inbounds [39 x %struct.GCRef], ptr %56, i64 0, i64 %57
  %59 = getelementptr inbounds nuw %struct.GCRef, ptr %58, i32 0, i32 0
  store i64 %50, ptr %59, align 8, !tbaa !19
  br label %77

60:                                               ; preds = %14, %3
  %61 = load ptr, ptr %4, align 8, !tbaa !4
  %62 = load ptr, ptr %4, align 8, !tbaa !4
  %63 = getelementptr inbounds nuw %struct.lua_State, ptr %62, i32 0, i32 8
  %64 = load ptr, ptr %63, align 8, !tbaa !9
  %65 = getelementptr inbounds nuw %union.TValue, ptr %64, i32 1
  store ptr %65, ptr %63, align 8, !tbaa !9
  %66 = load ptr, ptr %4, align 8, !tbaa !4
  %67 = getelementptr inbounds nuw %struct.lua_State, ptr %66, i32 0, i32 5
  %68 = getelementptr inbounds nuw %struct.MRef, ptr %67, i32 0, i32 0
  %69 = load i64, ptr %68, align 8, !tbaa !18
  %70 = inttoptr i64 %69 to ptr
  %71 = getelementptr inbounds nuw %struct.global_State, ptr %70, i32 0, i32 28
  %72 = load i64, ptr %5, align 8, !tbaa !37
  %73 = getelementptr inbounds [39 x %struct.GCRef], ptr %71, i64 0, i64 %72
  %74 = getelementptr inbounds nuw %struct.GCRef, ptr %73, i32 0, i32 0
  %75 = load i64, ptr %74, align 8, !tbaa !19
  %76 = inttoptr i64 %75 to ptr
  call void @setudataV(ptr noundef %61, ptr noundef %64, ptr noundef %76)
  br label %77

77:                                               ; preds = %60, %41
  ret i32 1
}

; Function Attrs: nounwind uwtable
define internal i32 @lj_cf_io_output(ptr noundef %0) #0 {
  %2 = alloca ptr, align 8
  store ptr %0, ptr %2, align 8, !tbaa !4
  %3 = load ptr, ptr %2, align 8, !tbaa !4
  %4 = call i32 @io_std_getset(ptr noundef %3, i64 noundef 37, ptr noundef @.str.16)
  ret i32 %4
}